target datalayout = "e-m:e-p270:32:32-p271:32:32-p272:64:64-i64:64-i128:128-f80:128-n8:16:32:64-S128"
target triple = "x86_64-pc-linux-gnu"

%struct.PROV_ECX_CTX = type { i64, ptr, ptr }
%struct.ecx_key_st = type { ptr, ptr, i8, [57 x i8], ptr, i64, i32, %struct.CRYPTO_REF_COUNT }
%struct.CRYPTO_REF_COUNT = type { i32 }

@.str = private unnamed_addr constant [57 x i8] c"../openssl/providers/implementations/exchange/ecx_exch.c\00", align 1
@__func__.ecx_init = private unnamed_addr constant [9 x i8] c"ecx_init\00", align 1

; Function Attrs: nounwind uwtable
define internal i32 @ecx_init(ptr noundef %0, ptr noundef %1, ptr noundef %2) #0 {
  %4 = alloca i32, align 4
  %5 = alloca ptr, align 8
  %6 = alloca ptr, align 8
  %7 = alloca ptr, align 8
  %8 = alloca ptr, align 8
  %9 = alloca ptr, align 8
  %10 = alloca i32, align 4
  store ptr %0, ptr %5, align 8, !tbaa !3
  store ptr %1, ptr %6, align 8, !tbaa !3
  store ptr %2, ptr %7, align 8, !tbaa !9
  call void @llvm.lifetime.start.p0(i64 8, ptr %8) #4
  %11 = load ptr, ptr %5, align 8, !tbaa !3
  store ptr %11, ptr %8, align 8, !tbaa !3
  call void @llvm.lifetime.start.p0(i64 8, ptr %9) #4
  %12 = load ptr, ptr %6, align 8, !tbaa !3
  store ptr %12, ptr %9, align 8, !tbaa !20
  %13 = call i32 @ossl_prov_is_running()
  %14 = icmp ne i32 %13, 0
  br i1 %14, label %16, label %15

15:                                               ; preds = %3
  store i32 0, ptr %4, align 4
  store i32 1, ptr %10, align 4
  br label %42

16:                                               ; preds = %3
  %17 = load ptr, ptr %8, align 8, !tbaa !3
  %18 = icmp eq ptr %17, null
  br i1 %18, label %34, label %19

19:                                               ; preds = %16
  %20 = load ptr, ptr %9, align 8, !tbaa !20
  %21 = icmp eq ptr %20, null
  br i1 %21, label %34, label %22

22:                                               ; preds = %19
  %23 = load ptr, ptr %9, align 8, !tbaa !20
  %24 = getelementptr inbounds nuw %struct.ecx_key_st, ptr %23, i32 0, i32 5
  %25 = load i64, ptr %24, align 8, !tbaa !21
  %26 = load ptr, ptr %8, align 8, !tbaa !3
  %27 = getelementptr inbounds nuw %struct.PROV_ECX_CTX, ptr %26, i32 0, i32 0
  %28 = load i64, ptr %27, align 8, !tbaa !19
  %29 = icmp ne i64 %25, %28
  br i1 %29, label %34, label %30

30:                                               ; preds = %22
  %31 = load ptr, ptr %9, align 8, !tbaa !20
  %32 = call i32 @ossl_ecx_key_up_ref(ptr noundef %31)
  %33 = icmp ne i32 %32, 0
  br i1 %33, label %35, label %34

34:                                               ; preds = %30, %22, %19, %16
  call void @ERR_new()
  call void @ERR_set_debug(ptr noundef @.str, i32 noundef 83, ptr noundef @__func__.ecx_init)
  call void (i32, i32, ptr, ...) @ERR_set_error(i32 noundef 57, i32 noundef 786691, ptr noundef null)
  store i32 0, ptr %4, align 4
  store i32 1, ptr %10, align 4
  br label %42

35:                                               ; preds = %30
  %36 = load ptr, ptr %8, align 8, !tbaa !3
  %37 = getelementptr inbounds nuw %struct.PROV_ECX_CTX, ptr %36, i32 0, i32 1
  %38 = load ptr, ptr %37, align 8, !tbaa !18
  call void @ossl_ecx_key_free(ptr noundef %38)
  %39 = load ptr, ptr %9, align 8, !tbaa !20
  %40 = load ptr, ptr %8, align 8, !tbaa !3
  %41 = getelementptr inbounds nuw %struct.PROV_ECX_CTX, ptr %40, i32 0, i32 1
  store ptr %39, ptr %41, align 8, !tbaa !18
  store i32 1, ptr %4, align 4
  store i32 1, ptr %10, align 4
  br label %42

42:                                               ; preds = %35, %34, %15
  call void @llvm.lifetime.end.p0(i64 8, ptr %9) #4
  call void @llvm.lifetime.end.p0(i64 8, ptr %8) #4
  %43 = load i32, ptr %4, align 4
  ret i32 %43
}