; Function Attrs: nounwind uwtable
define internal fastcc range(i32 0, 2) i32 @ecx_init(ptr noundef captures(address_is_null) %0, ptr noundef %1) unnamed_addr #0 {
  %3 = tail call i32 @ossl_prov_is_running() #4
  %.not = icmp eq i32 %3, 0
  br i1 %.not, label %17, label %4

4:                                                ; preds = %2
  %5 = icmp eq ptr %0, null
  %6 = icmp eq ptr %1, null
  %or.cond = or i1 %5, %6
  br i1 %or.cond, label %13, label %7

7:                                                ; preds = %4
  %8 = getelementptr inbounds nuw i8, ptr %1, i64 88
  %9 = load i64, ptr %8, align 8, !tbaa !12
  %10 = load i64, ptr %0, align 8, !tbaa !3
  %.not13 = icmp eq i64 %9, %10
  br i1 %.not13, label %11, label %13

11:                                               ; preds = %7
  %12 = tail call i32 @ossl_ecx_key_up_ref(ptr noundef nonnull %1) #4
  %.not14 = icmp eq i32 %12, 0
  br i1 %.not14, label %13, label %14

13:                                               ; preds = %11, %7, %4
  tail call void @ERR_new() #4
  tail call void @ERR_set_debug(ptr noundef nonnull @.str, i32 noundef 83, ptr noundef nonnull @__func__.ecx_init) #4
  tail call void (i32, i32, ptr, ...) @ERR_set_error(i32 noundef 57, i32 noundef 786691, ptr noundef null) #4
  br label %17

14:                                               ; preds = %11
  %15 = getelementptr inbounds nuw i8, ptr %0, i64 8
  %16 = load ptr, ptr %15, align 8, !tbaa !11
  tail call void @ossl_ecx_key_free(ptr noundef %16) #4
  store ptr %1, ptr %15, align 8, !tbaa !11
  br label %17

17:                                               ; preds = %2, %14, %13
  %.0 = phi i32 [ 0, %13 ], [ 1, %14 ], [ 0, %2 ]
  ret i32 %.0
}